target datalayout = "e-m:e-p270:32:32-p271:32:32-p272:64:64-i64:64-i128:128-f80:128-n8:16:32:64-S128"
target triple = "x86_64-pc-linux-gnu"

%struct.GetByteContext = type { ptr, ptr, ptr }

; Function Attrs: alwaysinline nounwind uwtable
define internal i32 @bytestream_get_byte(ptr noundef %0) #3 {
  %2 = alloca ptr, align 8
  store ptr %0, ptr %2, align 8, !tbaa !73
  %3 = load ptr, ptr %2, align 8, !tbaa !73
  %4 = load ptr, ptr %3, align 8, !tbaa !45
  %5 = getelementptr inbounds i8, ptr %4, i64 1
  store ptr %5, ptr %3, align 8, !tbaa !45
  %6 = load ptr, ptr %2, align 8, !tbaa !73
  %7 = load ptr, ptr %6, align 8, !tbaa !45
  %8 = getelementptr inbounds i8, ptr %7, i64 -1
  %9 = getelementptr inbounds i8, ptr %8, i64 0
  %10 = load i8, ptr %9, align 1, !tbaa !47
  %11 = zext i8 %10 to i32
  ret i32 %11
}

; Function Attrs: alwaysinline nounwind uwtable
define internal i32 @bytestream2_get_byteu(ptr noundef %0) #3 {
  %2 = alloca ptr, align 8
  store ptr %0, ptr %2, align 8, !tbaa !58
  %3 = load ptr, ptr %2, align 8, !tbaa !58
  %4 = getelementptr inbounds nuw %struct.GetByteContext, ptr %3, i32 0, i32 0
  %5 = call i32 @bytestream_get_byte(ptr noundef %4)
  ret i32 %5
}

; Function Attrs: alwaysinline nounwind uwtable
define internal i32 @bytestream2_get_buffer(ptr noundef %0, ptr noundef %1, i32 noundef %2) #3 {
  %4 = alloca ptr, align 8
  %5 = alloca ptr, align 8
  %6 = alloca i32, align 4
  %7 = alloca i32, align 4
  store ptr %0, ptr %4, align 8, !tbaa !58
  store ptr %1, ptr %5, align 8, !tbaa !45
  store i32 %2, ptr %6, align 4, !tbaa !24
  call void @llvm.lifetime.start.p0(i64 4, ptr %7) #9
  %8 = load ptr, ptr %4, align 8, !tbaa !58
  %9 = getelementptr inbounds nuw %struct.GetByteContext, ptr %8, i32 0, i32 1
  %10 = load ptr, ptr %9, align 8, !tbaa !63
  %11 = load ptr, ptr %4, align 8, !tbaa !58
  %12 = getelementptr inbounds nuw %struct.GetByteContext, ptr %11, i32 0, i32 0
  %13 = load ptr, ptr %12, align 8, !tbaa !60
  %14 = ptrtoint ptr %10 to i64
  %15 = ptrtoint ptr %13 to i64
  %16 = sub i64 %14, %15
  %17 = load i32, ptr %6, align 4, !tbaa !24
  %18 = zext i32 %17 to i64
  %19 = icmp sgt i64 %16, %18
  br i1 %19, label %20, label %23

20:                                               ; preds = %3
  %21 = load i32, ptr %6, align 4, !tbaa !24
  %22 = zext i32 %21 to i64
  br label %33

23:                                               ; preds = %3
  %24 = load ptr, ptr %4, align 8, !tbaa !58
  %25 = getelementptr inbounds nuw %struct.GetByteContext, ptr %24, i32 0, i32 1
  %26 = load ptr, ptr %25, align 8, !tbaa !63
  %27 = load ptr, ptr %4, align 8, !tbaa !58
  %28 = getelementptr inbounds nuw %struct.GetByteContext, ptr %27, i32 0, i32 0
  %29 = load ptr, ptr %28, align 8, !tbaa !60
  %30 = ptrtoint ptr %26 to i64
  %31 = ptrtoint ptr %29 to i64
  %32 = sub i64 %30, %31
  br label %33

33:                                               ; preds = %23, %20
  %34 = phi i64 [ %22, %20 ], [ %32, %23 ]
  %35 = trunc i64 %34 to i32
  store i32 %35, ptr %7, align 4, !tbaa !24
  %36 = load ptr, ptr %5, align 8, !tbaa !45
  %37 = load ptr, ptr %4, align 8, !tbaa !58
  %38 = getelementptr inbounds nuw %struct.GetByteContext, ptr %37, i32 0, i32 0
  %39 = load ptr, ptr %38, align 8, !tbaa !60
  %40 = load i32, ptr %7, align 4, !tbaa !24
  %41 = zext i32 %40 to i64
  call void @llvm.memcpy.p0.p0.i64(ptr align 1 %36, ptr align 1 %39, i64 %41, i1 false)
  %42 = load i32, ptr %7, align 4, !tbaa !24
  %43 = load ptr, ptr %4, align 8, !tbaa !58
  %44 = getelementptr inbounds nuw %struct.GetByteContext, ptr %43, i32 0, i32 0
  %45 = load ptr, ptr %44, align 8, !tbaa !60
  %46 = zext i32 %42 to i64
  %47 = getelementptr inbounds nuw i8, ptr %45, i64 %46
  store ptr %47, ptr %44, align 8, !tbaa !60
  %48 = load i32, ptr %7, align 4, !tbaa !24
  call void @llvm.lifetime.end.p0(i64 4, ptr %7) #9
  ret i32 %48
}

; Function Attrs: alwaysinline nounwind uwtable
define internal i32 @bytestream2_get_byte(ptr noundef %0) #3 {
  %2 = alloca i32, align 4
  %3 = alloca ptr, align 8
  store ptr %0, ptr %3, align 8, !tbaa !58
  %4 = load ptr, ptr %3, align 8, !tbaa !58
  %5 = getelementptr inbounds nuw %struct.GetByteContext, ptr %4, i32 0, i32 1
  %6 = load ptr, ptr %5, align 8, !tbaa !63
  %7 = load ptr, ptr %3, align 8, !tbaa !58
  %8 = getelementptr inbounds nuw %struct.GetByteContext, ptr %7, i32 0, i32 0
  %9 = load ptr, ptr %8, align 8, !tbaa !60
  %10 = ptrtoint ptr %6 to i64
  %11 = ptrtoint ptr %9 to i64
  %12 = sub i64 %10, %11
  %13 = icmp slt i64 %12, 1
  br i1 %13, label %14, label %20

14:                                               ; preds = %1
  %15 = load ptr, ptr %3, align 8, !tbaa !58
  %16 = getelementptr inbounds nuw %struct.GetByteContext, ptr %15, i32 0, i32 1
  %17 = load ptr, ptr %16, align 8, !tbaa !63
  %18 = load ptr, ptr %3, align 8, !tbaa !58
  %19 = getelementptr inbounds nuw %struct.GetByteContext, ptr %18, i32 0, i32 0
  store ptr %17, ptr %19, align 8, !tbaa !60
  store i32 0, ptr %2, align 4
  br label %23

20:                                               ; preds = %1
  %21 = load ptr, ptr %3, align 8, !tbaa !58
  %22 = call i32 @bytestream2_get_byteu(ptr noundef %21)
  store i32 %22, ptr %2, align 4
  br label %23

23:                                               ; preds = %20, %14
  %24 = load i32, ptr %2, align 4
  ret i32 %24
}

; Function Attrs: alwaysinline nounwind uwtable
define internal i32 @bytestream2_get_bytes_left(ptr noundef %0) #3 {
  %2 = alloca ptr, align 8
  store ptr %0, ptr %2, align 8, !tbaa !58
  %3 = load ptr, ptr %2, align 8, !tbaa !58
  %4 = getelementptr inbounds nuw %struct.GetByteContext, ptr %3, i32 0, i32 1
  %5 = load ptr, ptr %4, align 8, !tbaa !63
  %6 = load ptr, ptr %2, align 8, !tbaa !58
  %7 = getelementptr inbounds nuw %struct.GetByteContext, ptr %6, i32 0, i32 0
  %8 = load ptr, ptr %7, align 8, !tbaa !60
  %9 = ptrtoint ptr %5 to i64
  %10 = ptrtoint ptr %8 to i64
  %11 = sub i64 %9, %10
  %12 = trunc i64 %11 to i32
  ret i32 %12
}

; Function Attrs: nounwind uwtable
define internal i32 @pcx_rle_decode(ptr noundef %0, ptr noundef %1, i32 noundef %2, i32 noundef %3) #0 {
  %5 = alloca i32, align 4
  %6 = alloca ptr, align 8
  %7 = alloca ptr, align 8
  %8 = alloca i32, align 4
  %9 = alloca i32, align 4
  %10 = alloca i32, align 4
  %11 = alloca i8, align 1
  %12 = alloca i8, align 1
  %13 = alloca i32, align 4
  store ptr %0, ptr %6, align 8, !tbaa !58
  store ptr %1, ptr %7, align 8, !tbaa !45
  store i32 %2, ptr %8, align 4, !tbaa !24
  store i32 %3, ptr %9, align 4, !tbaa !24
  call void @llvm.lifetime.start.p0(i64 4, ptr %10) #9
  store i32 0, ptr %10, align 4, !tbaa !24
  call void @llvm.lifetime.start.p0(i64 1, ptr %11) #9
  call void @llvm.lifetime.start.p0(i64 1, ptr %12) #9
  %14 = load ptr, ptr %6, align 8, !tbaa !58
  %15 = call i32 @bytestream2_get_bytes_left(ptr noundef %14)
  %16 = icmp slt i32 %15, 1
  br i1 %16, label %17, label %18

17:                                               ; preds = %4
  store i32 -1094995529, ptr %5, align 4
  store i32 1, ptr %13, align 4
  br label %78

18:                                               ; preds = %4
  %19 = load i32, ptr %9, align 4, !tbaa !24
  %20 = icmp ne i32 %19, 0
  br i1 %20, label %21, label %72

21:                                               ; preds = %18
  br label %22

22:                                               ; preds = %70, %21
  %23 = load i32, ptr %10, align 4, !tbaa !24
  %24 = load i32, ptr %8, align 4, !tbaa !24
  %25 = icmp ult i32 %23, %24
  br i1 %25, label %26, label %30

26:                                               ; preds = %22
  %27 = load ptr, ptr %6, align 8, !tbaa !58
  %28 = call i32 @bytestream2_get_bytes_left(ptr noundef %27)
  %29 = icmp sgt i32 %28, 0
  br label %30

30:                                               ; preds = %26, %22
  %31 = phi i1 [ false, %22 ], [ %29, %26 ]
  br i1 %31, label %32, label %71

32:                                               ; preds = %30
  store i8 1, ptr %11, align 1, !tbaa !47
  %33 = load ptr, ptr %6, align 8, !tbaa !58
  %34 = call i32 @bytestream2_get_byte(ptr noundef %33)
  %35 = trunc i32 %34 to i8
  store i8 %35, ptr %12, align 1, !tbaa !47
  %36 = load i8, ptr %12, align 1, !tbaa !47
  %37 = zext i8 %36 to i32
  %38 = icmp sge i32 %37, 192
  br i1 %38, label %39, label %51

39:                                               ; preds = %32
  %40 = load ptr, ptr %6, align 8, !tbaa !58
  %41 = call i32 @bytestream2_get_bytes_left(ptr noundef %40)
  %42 = icmp sgt i32 %41, 0
  br i1 %42, label %43, label %51

43:                                               ; preds = %39
  %44 = load i8, ptr %12, align 1, !tbaa !47
  %45 = zext i8 %44 to i32
  %46 = and i32 %45, 63
  %47 = trunc i32 %46 to i8
  store i8 %47, ptr %11, align 1, !tbaa !47
  %48 = load ptr, ptr %6, align 8, !tbaa !58
  %49 = call i32 @bytestream2_get_byte(ptr noundef %48)
  %50 = trunc i32 %49 to i8
  store i8 %50, ptr %12, align 1, !tbaa !47
  br label %51

51:                                               ; preds = %43, %39, %32
  br label %52

52:                                               ; preds = %63, %51
  %53 = load i32, ptr %10, align 4, !tbaa !24
  %54 = load i32, ptr %8, align 4, !tbaa !24
  %55 = icmp ult i32 %53, %54
  br i1 %55, label %56, label %61

56:                                               ; preds = %52
  %57 = load i8, ptr %11, align 1, !tbaa !47
  %58 = add i8 %57, -1
  store i8 %58, ptr %11, align 1, !tbaa !47
  %59 = zext i8 %57 to i32
  %60 = icmp ne i32 %59, 0
  br label %61

61:                                               ; preds = %56, %52
  %62 = phi i1 [ false, %52 ], [ %60, %56 ]
  br i1 %62, label %63, label %70

63:                                               ; preds = %61
  %64 = load i8, ptr %12, align 1, !tbaa !47
  %65 = load ptr, ptr %7, align 8, !tbaa !45
  %66 = load i32, ptr %10, align 4, !tbaa !24
  %67 = add i32 %66, 1
  store i32 %67, ptr %10, align 4, !tbaa !24
  %68 = zext i32 %66 to i64
  %69 = getelementptr inbounds nuw i8, ptr %65, i64 %68
  store i8 %64, ptr %69, align 1, !tbaa !47
  br label %52, !llvm.loop !64

70:                                               ; preds = %61
  br label %22, !llvm.loop !65

71:                                               ; preds = %30
  br label %77

72:                                               ; preds = %18
  %73 = load ptr, ptr %6, align 8, !tbaa !58
  %74 = load ptr, ptr %7, align 8, !tbaa !45
  %75 = load i32, ptr %8, align 4, !tbaa !24
  %76 = call i32 @bytestream2_get_buffer(ptr noundef %73, ptr noundef %74, i32 noundef %75)
  br label %77

77:                                               ; preds = %72, %71
  store i32 0, ptr %5, align 4
  store i32 1, ptr %13, align 4
  br label %78

78:                                               ; preds = %77, %17
  call void @llvm.lifetime.end.p0(i64 1, ptr %12) #9
  call void @llvm.lifetime.end.p0(i64 1, ptr %11) #9
  call void @llvm.lifetime.end.p0(i64 4, ptr %10) #9
  %79 = load i32, ptr %5, align 4
  ret i32 %79
}