; Function Attrs: nofree norecurse nosync nounwind memory(readwrite, inaccessiblemem: none) uwtable
define internal fastcc range(i32 -1094995529, 1) i32 @pcx_rle_decode(ptr noundef nonnull captures(none) %0, ptr noundef nonnull writeonly captures(none) %1, i32 noundef range(i32 0, 16711426) %2, i32 noundef range(i32 0, 256) %3) unnamed_addr #3 {
  %5 = getelementptr inbounds nuw i8, ptr %0, i64 8
  %6 = load ptr, ptr %5, align 8, !tbaa !18
  %7 = load ptr, ptr %0, align 8, !tbaa !37
  %8 = ptrtoint ptr %6 to i64
  %9 = ptrtoint ptr %7 to i64
  %10 = sub i64 %8, %9
  %11 = trunc i64 %10 to i32
  %12 = icmp slt i32 %11, 1
  br i1 %12, label %.critedge, label %13

13:                                               ; preds = %4
  %.not = icmp eq i32 %3, 0
  br i1 %.not, label %51, label %.critedge2.preheader

.critedge2.preheader:                             ; preds = %13
  %.not37 = icmp eq i32 %2, 0
  br i1 %.not37, label %.critedge, label %.lr.ph36.preheader

.lr.ph36.preheader:                               ; preds = %.critedge2.preheader
  %14 = zext nneg i32 %2 to i64
  br label %.lr.ph36

.critedge2.loopexit.loopexit:                     ; preds = %.lr.ph
  %15 = trunc nuw i64 %indvars.iv.next to i32
  br label %.critedge2.loopexit

.critedge2.loopexit:                              ; preds = %.critedge2.loopexit.loopexit, %bytestream2_get_byte.exit29
  %.123.lcssa = phi i32 [ %.02235, %bytestream2_get_byte.exit29 ], [ %15, %.critedge2.loopexit.loopexit ]
  %16 = icmp ult i32 %.123.lcssa, %2
  br i1 %16, label %.lr.ph36, label %.critedge, !llvm.loop !44

.lr.ph36:                                         ; preds = %.lr.ph36.preheader, %.critedge2.loopexit
  %.02235 = phi i32 [ %.123.lcssa, %.critedge2.loopexit ], [ 0, %.lr.ph36.preheader ]
  %17 = load ptr, ptr %5, align 8, !tbaa !18
  %18 = load ptr, ptr %0, align 8, !tbaa !37
  %19 = ptrtoint ptr %17 to i64
  %20 = ptrtoint ptr %18 to i64
  %21 = sub i64 %19, %20
  %22 = trunc i64 %21 to i32
  %23 = icmp sgt i32 %22, 0
  br i1 %23, label %24, label %.critedge

24:                                               ; preds = %.lr.ph36
  %25 = icmp slt i64 %21, 1
  br i1 %25, label %bytestream2_get_byte.exit.thread, label %bytestream2_get_byte.exit

bytestream2_get_byte.exit.thread:                 ; preds = %24
  store ptr %17, ptr %0, align 8, !tbaa !37
  br label %bytestream2_get_byte.exit29

bytestream2_get_byte.exit:                        ; preds = %24
  %26 = getelementptr inbounds nuw i8, ptr %18, i64 1
  store ptr %26, ptr %0, align 8, !tbaa !19
  %27 = load i8, ptr %18, align 1, !tbaa !20
  %28 = icmp ugt i8 %27, -65
  br i1 %28, label %29, label %bytestream2_get_byte.exit29

29:                                               ; preds = %bytestream2_get_byte.exit
  %30 = ptrtoint ptr %26 to i64
  %31 = sub i64 %19, %30
  %32 = trunc i64 %31 to i32
  %33 = icmp sgt i32 %32, 0
  br i1 %33, label %34, label %bytestream2_get_byte.exit29

34:                                               ; preds = %29
  %35 = and i8 %27, 63
  %36 = icmp slt i64 %31, 1
  br i1 %36, label %37, label %38

37:                                               ; preds = %34
  store ptr %17, ptr %0, align 8, !tbaa !37
  br label %bytestream2_get_byte.exit29

38:                                               ; preds = %34
  %39 = getelementptr inbounds nuw i8, ptr %18, i64 2
  store ptr %39, ptr %0, align 8, !tbaa !19
  %40 = load i8, ptr %26, align 1, !tbaa !20
  br label %bytestream2_get_byte.exit29

bytestream2_get_byte.exit29:                      ; preds = %38, %37, %bytestream2_get_byte.exit.thread, %29, %bytestream2_get_byte.exit
  %.021 = phi i8 [ 1, %29 ], [ 1, %bytestream2_get_byte.exit ], [ 1, %bytestream2_get_byte.exit.thread ], [ %35, %37 ], [ %35, %38 ]
  %.0.in.shrunk = phi i8 [ %27, %29 ], [ %27, %bytestream2_get_byte.exit ], [ 0, %bytestream2_get_byte.exit.thread ], [ 0, %37 ], [ %40, %38 ]
  %41 = icmp uge i32 %.02235, %2
  %.not2731 = icmp eq i8 %.021, 0
  %or.cond32 = or i1 %41, %.not2731
  br i1 %or.cond32, label %.critedge2.loopexit, label %.lr.ph.preheader

.lr.ph.preheader:                                 ; preds = %bytestream2_get_byte.exit29
  %42 = zext i32 %.02235 to i64
  %scevgep = getelementptr i8, ptr %1, i64 %42
  %43 = xor i32 %.02235, -1
  %44 = add i32 %2, %43
  %45 = zext i32 %44 to i64
  %46 = add nsw i8 %.021, -1
  %47 = zext nneg i8 %46 to i64
  %umin = tail call i64 @llvm.umin.i64(i64 %45, i64 %47)
  %48 = add nuw nsw i64 %umin, 1
  tail call void @llvm.memset.p0.i64(ptr noundef nonnull align 1 dereferenceable(1) %scevgep, i8 %.0.in.shrunk, i64 %48, i1 false), !tbaa !20
  br label %.lr.ph

.lr.ph:                                           ; preds = %.lr.ph.preheader, %.lr.ph
  %indvars.iv = phi i64 [ %42, %.lr.ph.preheader ], [ %indvars.iv.next, %.lr.ph ]
  %.134 = phi i8 [ %.021, %.lr.ph.preheader ], [ %49, %.lr.ph ]
  %49 = add nsw i8 %.134, -1
  %indvars.iv.next = add nuw nsw i64 %indvars.iv, 1
  %50 = icmp samesign uge i64 %indvars.iv.next, %14
  %.not27 = icmp eq i8 %49, 0
  %or.cond = select i1 %50, i1 true, i1 %.not27
  br i1 %or.cond, label %.critedge2.loopexit.loopexit, label %.lr.ph, !llvm.loop !55

51:                                               ; preds = %13
  %52 = zext nneg i32 %2 to i64
  %53 = tail call i64 @llvm.smin.i64(i64 %10, i64 %52)
  %54 = and i64 %53, 2147483647
  tail call void @llvm.memcpy.p0.p0.i64(ptr nonnull align 1 %1, ptr align 1 %7, i64 %54, i1 false)
  %55 = load ptr, ptr %0, align 8, !tbaa !37
  %56 = getelementptr inbounds nuw i8, ptr %55, i64 %54
  store ptr %56, ptr %0, align 8, !tbaa !37
  br label %.critedge

.critedge:                                        ; preds = %.lr.ph36, %.critedge2.loopexit, %.critedge2.preheader, %51, %4
  %.024 = phi i32 [ -1094995529, %4 ], [ 0, %51 ], [ 0, %.critedge2.preheader ], [ 0, %.critedge2.loopexit ], [ 0, %.lr.ph36 ]
  ret i32 %.024
}